; Function Attrs: mustprogress nounwind uwtable
define hidden void @_ZN23ShenandoahControlThread17notify_gc_waitersEv(ptr noundef nonnull align 8 dereferenceable(1868) %0) local_unnamed_addr #0 align 2 {
_ZN13MonitorLockerD2Ev.exit:
  %1 = getelementptr inbounds i8, ptr %0, i64 1792
  %2 = tail call i8 asm sideeffect "xchgb ($2),$0", "=q,0,r,~{memory},~{dirflag},~{fpsr},~{flags}"(i8 0, ptr nonnull %1) #10, !srcloc !6
  %3 = getelementptr inbounds i8, ptr %0, i64 1624
  tail call void @_ZN5Mutex4lockEv(ptr noundef nonnull align 8 dereferenceable(104) %3) #10
  tail call void @_ZN7Monitor10notify_allEv(ptr noundef nonnull align 8 dereferenceable(104) %3) #10
  tail call void @_ZN5Mutex6unlockEv(ptr noundef nonnull align 8 dereferenceable(104) %3) #10
  ret void
}